; Function Attrs: nounwind uwtable
define range(i32 0, 2) i32 @ossl_quic_sstream_set_buffer_size(ptr noundef captures(none) %0, i64 noundef %1) local_unnamed_addr #0 {
  %3 = getelementptr inbounds nuw i8, ptr %0, i64 80
  %4 = load i8, ptr %3, align 8
  %5 = lshr i8 %4, 3
  %6 = and i8 %5, 1
  %7 = zext nneg i8 %6 to i32
  %8 = tail call fastcc i32 @ring_buf_resize(ptr noundef %0, i64 noundef %1, i32 noundef %7)
  ret i32 %8
}